target datalayout = "e-m:e-p270:32:32-p271:32:32-p272:64:64-i64:64-i128:128-f80:128-n8:16:32:64-S128"
target triple = "x86_64-pc-linux-gnu"

%"struct.LIEF::MachO::ChainedPointerAnalysis::union_pointer_t" = type { i32, %union.anon.8 }
%union.anon.8 = type { %"struct.LIEF::MachO::ChainedPointerAnalysis::dyld_chained_ptr_arm64e_rebase_t" }
%"struct.LIEF::MachO::ChainedPointerAnalysis::dyld_chained_ptr_arm64e_rebase_t" = type { i64 }

; Function Attrs: mustprogress nounwind uwtable
define noundef nonnull align 8 dereferenceable(8) ptr @_ZN4LIEF5MachOlsERSoRKNS0_22ChainedPointerAnalysis15union_pointer_tE(ptr noundef nonnull align 8 dereferenceable(8) %0, ptr noundef nonnull align 8 dereferenceable(16) %1) #0 {
  %3 = alloca ptr, align 8
  %4 = alloca ptr, align 8
  store ptr %0, ptr %3, align 8, !tbaa !3
  store ptr %1, ptr %4, align 8, !tbaa !78
  %5 = load ptr, ptr %4, align 8, !tbaa !78
  %6 = getelementptr inbounds nuw %"struct.LIEF::MachO::ChainedPointerAnalysis::union_pointer_t", ptr %5, i32 0, i32 0
  %7 = load i32, ptr %6, align 8, !tbaa !72
  switch i32 %7, label %73 [
    i32 1, label %8
    i32 2, label %13
    i32 3, label %18
    i32 4, label %23
    i32 5, label %28
    i32 6, label %33
    i32 7, label %38
    i32 8, label %43
    i32 9, label %48
    i32 10, label %53
    i32 11, label %58
    i32 12, label %63
    i32 13, label %68
    i32 0, label %73
  ]

8:                                                ; preds = %2
  %9 = load ptr, ptr %3, align 8, !tbaa !3
  %10 = load ptr, ptr %4, align 8, !tbaa !78
  %11 = getelementptr inbounds nuw %"struct.LIEF::MachO::ChainedPointerAnalysis::union_pointer_t", ptr %10, i32 0, i32 1
  %12 = call noundef nonnull align 8 dereferenceable(8) ptr @_ZN4LIEF5MachOlsERSoRKNS0_22ChainedPointerAnalysis32dyld_chained_ptr_arm64e_rebase_tE(ptr noundef nonnull align 8 dereferenceable(8) %9, ptr noundef nonnull align 8 dereferenceable(8) %11)
  br label %73

13:                                               ; preds = %2
  %14 = load ptr, ptr %3, align 8, !tbaa !3
  %15 = load ptr, ptr %4, align 8, !tbaa !78
  %16 = getelementptr inbounds nuw %"struct.LIEF::MachO::ChainedPointerAnalysis::union_pointer_t", ptr %15, i32 0, i32 1
  %17 = call noundef nonnull align 8 dereferenceable(8) ptr @_ZN4LIEF5MachOlsERSoRKNS0_22ChainedPointerAnalysis30dyld_chained_ptr_arm64e_bind_tE(ptr noundef nonnull align 8 dereferenceable(8) %14, ptr noundef nonnull align 8 dereferenceable(8) %16)
  br label %73

18:                                               ; preds = %2
  %19 = load ptr, ptr %3, align 8, !tbaa !3
  %20 = load ptr, ptr %4, align 8, !tbaa !78
  %21 = getelementptr inbounds nuw %"struct.LIEF::MachO::ChainedPointerAnalysis::union_pointer_t", ptr %20, i32 0, i32 1
  %22 = call noundef nonnull align 8 dereferenceable(8) ptr @_ZN4LIEF5MachOlsERSoRKNS0_22ChainedPointerAnalysis37dyld_chained_ptr_arm64e_auth_rebase_tE(ptr noundef nonnull align 8 dereferenceable(8) %19, ptr noundef nonnull align 8 dereferenceable(8) %21)
  br label %73

23:                                               ; preds = %2
  %24 = load ptr, ptr %3, align 8, !tbaa !3
  %25 = load ptr, ptr %4, align 8, !tbaa !78
  %26 = getelementptr inbounds nuw %"struct.LIEF::MachO::ChainedPointerAnalysis::union_pointer_t", ptr %25, i32 0, i32 1
  %27 = call noundef nonnull align 8 dereferenceable(8) ptr @_ZN4LIEF5MachOlsERSoRKNS0_22ChainedPointerAnalysis35dyld_chained_ptr_arm64e_auth_bind_tE(ptr noundef nonnull align 8 dereferenceable(8) %24, ptr noundef nonnull align 8 dereferenceable(8) %26)
  br label %73

28:                                               ; preds = %2
  %29 = load ptr, ptr %3, align 8, !tbaa !3
  %30 = load ptr, ptr %4, align 8, !tbaa !78
  %31 = getelementptr inbounds nuw %"struct.LIEF::MachO::ChainedPointerAnalysis::union_pointer_t", ptr %30, i32 0, i32 1
  %32 = call noundef nonnull align 8 dereferenceable(8) ptr @_ZN4LIEF5MachOlsERSoRKNS0_22ChainedPointerAnalysis28dyld_chained_ptr_64_rebase_tE(ptr noundef nonnull align 8 dereferenceable(8) %29, ptr noundef nonnull align 8 dereferenceable(8) %31)
  br label %73

33:                                               ; preds = %2
  %34 = load ptr, ptr %3, align 8, !tbaa !3
  %35 = load ptr, ptr %4, align 8, !tbaa !78
  %36 = getelementptr inbounds nuw %"struct.LIEF::MachO::ChainedPointerAnalysis::union_pointer_t", ptr %35, i32 0, i32 1
  %37 = call noundef nonnull align 8 dereferenceable(8) ptr @_ZN4LIEF5MachOlsERSoRKNS0_22ChainedPointerAnalysis32dyld_chained_ptr_arm64e_bind24_tE(ptr noundef nonnull align 8 dereferenceable(8) %34, ptr noundef nonnull align 8 dereferenceable(8) %36)
  br label %73

38:                                               ; preds = %2
  %39 = load ptr, ptr %3, align 8, !tbaa !3
  %40 = load ptr, ptr %4, align 8, !tbaa !78
  %41 = getelementptr inbounds nuw %"struct.LIEF::MachO::ChainedPointerAnalysis::union_pointer_t", ptr %40, i32 0, i32 1
  %42 = call noundef nonnull align 8 dereferenceable(8) ptr @_ZN4LIEF5MachOlsERSoRKNS0_22ChainedPointerAnalysis37dyld_chained_ptr_arm64e_auth_bind24_tE(ptr noundef nonnull align 8 dereferenceable(8) %39, ptr noundef nonnull align 8 dereferenceable(8) %41)
  br label %73

43:                                               ; preds = %2
  %44 = load ptr, ptr %3, align 8, !tbaa !3
  %45 = load ptr, ptr %4, align 8, !tbaa !78
  %46 = getelementptr inbounds nuw %"struct.LIEF::MachO::ChainedPointerAnalysis::union_pointer_t", ptr %45, i32 0, i32 1
  %47 = call noundef nonnull align 8 dereferenceable(8) ptr @_ZN4LIEF5MachOlsERSoRKNS0_22ChainedPointerAnalysis26dyld_chained_ptr_64_bind_tE(ptr noundef nonnull align 8 dereferenceable(8) %44, ptr noundef nonnull align 8 dereferenceable(8) %46)
  br label %73

48:                                               ; preds = %2
  %49 = load ptr, ptr %3, align 8, !tbaa !3
  %50 = load ptr, ptr %4, align 8, !tbaa !78
  %51 = getelementptr inbounds nuw %"struct.LIEF::MachO::ChainedPointerAnalysis::union_pointer_t", ptr %50, i32 0, i32 1
  %52 = call noundef nonnull align 8 dereferenceable(8) ptr @_ZN4LIEF5MachOlsERSoRKNS0_22ChainedPointerAnalysis41dyld_chained_ptr_64_kernel_cache_rebase_tE(ptr noundef nonnull align 8 dereferenceable(8) %49, ptr noundef nonnull align 8 dereferenceable(8) %51)
  br label %73

53:                                               ; preds = %2
  %54 = load ptr, ptr %3, align 8, !tbaa !3
  %55 = load ptr, ptr %4, align 8, !tbaa !78
  %56 = getelementptr inbounds nuw %"struct.LIEF::MachO::ChainedPointerAnalysis::union_pointer_t", ptr %55, i32 0, i32 1
  %57 = call noundef nonnull align 8 dereferenceable(8) ptr @_ZN4LIEF5MachOlsERSoRKNS0_22ChainedPointerAnalysis28dyld_chained_ptr_32_rebase_tE(ptr noundef nonnull align 8 dereferenceable(8) %54, ptr noundef nonnull align 4 dereferenceable(4) %56)
  br label %73

58:                                               ; preds = %2
  %59 = load ptr, ptr %3, align 8, !tbaa !3
  %60 = load ptr, ptr %4, align 8, !tbaa !78
  %61 = getelementptr inbounds nuw %"struct.LIEF::MachO::ChainedPointerAnalysis::union_pointer_t", ptr %60, i32 0, i32 1
  %62 = call noundef nonnull align 8 dereferenceable(8) ptr @_ZN4LIEF5MachOlsERSoRKNS0_22ChainedPointerAnalysis26dyld_chained_ptr_32_bind_tE(ptr noundef nonnull align 8 dereferenceable(8) %59, ptr noundef nonnull align 4 dereferenceable(4) %61)
  br label %73

63:                                               ; preds = %2
  %64 = load ptr, ptr %3, align 8, !tbaa !3
  %65 = load ptr, ptr %4, align 8, !tbaa !78
  %66 = getelementptr inbounds nuw %"struct.LIEF::MachO::ChainedPointerAnalysis::union_pointer_t", ptr %65, i32 0, i32 1
  %67 = call noundef nonnull align 8 dereferenceable(8) ptr @_ZN4LIEF5MachOlsERSoRKNS0_22ChainedPointerAnalysis34dyld_chained_ptr_32_cache_rebase_tE(ptr noundef nonnull align 8 dereferenceable(8) %64, ptr noundef nonnull align 4 dereferenceable(4) %66)
  br label %73

68:                                               ; preds = %2
  %69 = load ptr, ptr %3, align 8, !tbaa !3
  %70 = load ptr, ptr %4, align 8, !tbaa !78
  %71 = getelementptr inbounds nuw %"struct.LIEF::MachO::ChainedPointerAnalysis::union_pointer_t", ptr %70, i32 0, i32 1
  %72 = call noundef nonnull align 8 dereferenceable(8) ptr @_ZN4LIEF5MachOlsERSoRKNS0_22ChainedPointerAnalysis37dyld_chained_ptr_32_firmware_rebase_tE(ptr noundef nonnull align 8 dereferenceable(8) %69, ptr noundef nonnull align 4 dereferenceable(4) %71)
  br label %73

73:                                               ; preds = %2, %2, %68, %63, %58, %53, %48, %43, %38, %33, %28, %23, %18, %13, %8
  %74 = load ptr, ptr %3, align 8, !tbaa !3
  ret ptr %74
}