; Function Attrs: mustprogress nounwind uwtable
define noundef nonnull align 8 dereferenceable(8) ptr @_ZN4LIEF5MachOlsERSoRKNS0_22ChainedPointerAnalysis15union_pointer_tE(ptr noundef nonnull returned align 8 dereferenceable(8) %0, ptr noundef nonnull readonly align 8 captures(none) dereferenceable(16) %1) local_unnamed_addr #0 {
  %3 = load i32, ptr %1, align 8, !tbaa !190
  switch i32 %3, label %43 [
    i32 1, label %4
    i32 2, label %7
    i32 3, label %10
    i32 4, label %13
    i32 5, label %16
    i32 6, label %19
    i32 7, label %22
    i32 8, label %25
    i32 9, label %28
    i32 10, label %31
    i32 11, label %34
    i32 12, label %37
    i32 13, label %40
  ]

4:                                                ; preds = %2
  %5 = getelementptr inbounds nuw i8, ptr %1, i64 8
  %6 = tail call noundef nonnull align 8 dereferenceable(8) ptr @_ZN4LIEF5MachOlsERSoRKNS0_22ChainedPointerAnalysis32dyld_chained_ptr_arm64e_rebase_tE(ptr noundef nonnull align 8 dereferenceable(8) %0, ptr noundef nonnull align 8 dereferenceable(8) %5)
  br label %43

7:                                                ; preds = %2
  %8 = getelementptr inbounds nuw i8, ptr %1, i64 8
  %9 = tail call noundef nonnull align 8 dereferenceable(8) ptr @_ZN4LIEF5MachOlsERSoRKNS0_22ChainedPointerAnalysis30dyld_chained_ptr_arm64e_bind_tE(ptr noundef nonnull align 8 dereferenceable(8) %0, ptr noundef nonnull align 8 dereferenceable(8) %8)
  br label %43

10:                                               ; preds = %2
  %11 = getelementptr inbounds nuw i8, ptr %1, i64 8
  %12 = tail call noundef nonnull align 8 dereferenceable(8) ptr @_ZN4LIEF5MachOlsERSoRKNS0_22ChainedPointerAnalysis37dyld_chained_ptr_arm64e_auth_rebase_tE(ptr noundef nonnull align 8 dereferenceable(8) %0, ptr noundef nonnull align 8 dereferenceable(8) %11)
  br label %43

13:                                               ; preds = %2
  %14 = getelementptr inbounds nuw i8, ptr %1, i64 8
  %15 = tail call noundef nonnull align 8 dereferenceable(8) ptr @_ZN4LIEF5MachOlsERSoRKNS0_22ChainedPointerAnalysis35dyld_chained_ptr_arm64e_auth_bind_tE(ptr noundef nonnull align 8 dereferenceable(8) %0, ptr noundef nonnull align 8 dereferenceable(8) %14)
  br label %43

16:                                               ; preds = %2
  %17 = getelementptr inbounds nuw i8, ptr %1, i64 8
  %18 = tail call noundef nonnull align 8 dereferenceable(8) ptr @_ZN4LIEF5MachOlsERSoRKNS0_22ChainedPointerAnalysis28dyld_chained_ptr_64_rebase_tE(ptr noundef nonnull align 8 dereferenceable(8) %0, ptr noundef nonnull align 8 dereferenceable(8) %17)
  br label %43

19:                                               ; preds = %2
  %20 = getelementptr inbounds nuw i8, ptr %1, i64 8
  %21 = tail call noundef nonnull align 8 dereferenceable(8) ptr @_ZN4LIEF5MachOlsERSoRKNS0_22ChainedPointerAnalysis32dyld_chained_ptr_arm64e_bind24_tE(ptr noundef nonnull align 8 dereferenceable(8) %0, ptr noundef nonnull align 8 dereferenceable(8) %20)
  br label %43

22:                                               ; preds = %2
  %23 = getelementptr inbounds nuw i8, ptr %1, i64 8
  %24 = tail call noundef nonnull align 8 dereferenceable(8) ptr @_ZN4LIEF5MachOlsERSoRKNS0_22ChainedPointerAnalysis37dyld_chained_ptr_arm64e_auth_bind24_tE(ptr noundef nonnull align 8 dereferenceable(8) %0, ptr noundef nonnull align 8 dereferenceable(8) %23)
  br label %43

25:                                               ; preds = %2
  %26 = getelementptr inbounds nuw i8, ptr %1, i64 8
  %27 = tail call noundef nonnull align 8 dereferenceable(8) ptr @_ZN4LIEF5MachOlsERSoRKNS0_22ChainedPointerAnalysis26dyld_chained_ptr_64_bind_tE(ptr noundef nonnull align 8 dereferenceable(8) %0, ptr noundef nonnull align 8 dereferenceable(8) %26)
  br label %43

28:                                               ; preds = %2
  %29 = getelementptr inbounds nuw i8, ptr %1, i64 8
  %30 = tail call noundef nonnull align 8 dereferenceable(8) ptr @_ZN4LIEF5MachOlsERSoRKNS0_22ChainedPointerAnalysis41dyld_chained_ptr_64_kernel_cache_rebase_tE(ptr noundef nonnull align 8 dereferenceable(8) %0, ptr noundef nonnull align 8 dereferenceable(8) %29)
  br label %43

31:                                               ; preds = %2
  %32 = getelementptr inbounds nuw i8, ptr %1, i64 8
  %33 = tail call noundef nonnull align 8 dereferenceable(8) ptr @_ZN4LIEF5MachOlsERSoRKNS0_22ChainedPointerAnalysis28dyld_chained_ptr_32_rebase_tE(ptr noundef nonnull align 8 dereferenceable(8) %0, ptr noundef nonnull align 4 dereferenceable(4) %32)
  br label %43

34:                                               ; preds = %2
  %35 = getelementptr inbounds nuw i8, ptr %1, i64 8
  %36 = tail call noundef nonnull align 8 dereferenceable(8) ptr @_ZN4LIEF5MachOlsERSoRKNS0_22ChainedPointerAnalysis26dyld_chained_ptr_32_bind_tE(ptr noundef nonnull align 8 dereferenceable(8) %0, ptr noundef nonnull align 4 dereferenceable(4) %35)
  br label %43

37:                                               ; preds = %2
  %38 = getelementptr inbounds nuw i8, ptr %1, i64 8
  %39 = tail call noundef nonnull align 8 dereferenceable(8) ptr @_ZN4LIEF5MachOlsERSoRKNS0_22ChainedPointerAnalysis34dyld_chained_ptr_32_cache_rebase_tE(ptr noundef nonnull align 8 dereferenceable(8) %0, ptr noundef nonnull align 4 dereferenceable(4) %38)
  br label %43

40:                                               ; preds = %2
  %41 = getelementptr inbounds nuw i8, ptr %1, i64 8
  %42 = tail call noundef nonnull align 8 dereferenceable(8) ptr @_ZN4LIEF5MachOlsERSoRKNS0_22ChainedPointerAnalysis37dyld_chained_ptr_32_firmware_rebase_tE(ptr noundef nonnull align 8 dereferenceable(8) %0, ptr noundef nonnull align 4 dereferenceable(4) %41)
  br label %43

43:                                               ; preds = %40, %37, %34, %31, %28, %25, %22, %19, %16, %13, %10, %7, %4, %2
  ret ptr %0
}